; Function Attrs: mustprogress uwtable
define internal void @_ZN2cv12cpu_baselineL8cvt32f8sEPKhmS2_mPhmNS_5Size_IiEEPv(ptr nocapture noundef readonly %0, i64 noundef %1, ptr nocapture readnone %2, i64 %3, ptr nocapture noundef writeonly %4, i64 noundef %5, i64 %6, ptr nocapture readnone %7) #5 personality ptr @__gxx_personality_v0 {
  %9 = alloca %"class.cv::utils::trace::details::Region", align 8
  call void @_ZN2cv5utils5trace7details6RegionC1ERKNS3_21LocationStaticStorageE(ptr noundef nonnull align 8 dereferenceable(12) %9, ptr noundef nonnull align 8 dereferenceable(32) @_ZZN2cv12cpu_baselineL8cvt32f8sEPKhmS2_mPhmNS_5Size_IiEEPvE25__cv_trace_location_fn236)
  %.sroa.2.0.extract.shift.i = lshr i64 %6, 32
  %.sroa.2.0.extract.trunc.i = trunc nuw i64 %.sroa.2.0.extract.shift.i to i32
  %10 = lshr i64 %1, 2
  %11 = icmp sgt i32 %.sroa.2.0.extract.trunc.i, 0
  %.sroa.0.0.extract.trunc.i = trunc i64 %6 to i32
  %12 = icmp sgt i32 %.sroa.0.0.extract.trunc.i, 0
  %or.cond.i = and i1 %12, %11
  br i1 %or.cond.i, label %.preheader.us.preheader.i, label %_ZN2cv12cpu_baselineL4cvt_IfaNS_12hal_baseline5v_regIfLi4EEEEEvPKT_mPT0_mNS_5Size_IiEE.exit

.preheader.us.preheader.i:                        ; preds = %8
  %wide.trip.count.i = and i64 %6, 2147483647
  br label %.preheader.us.i

.preheader.us.i:                                  ; preds = %._crit_edge.us.i, %.preheader.us.preheader.i
  %.01319.us.i = phi i32 [ %22, %._crit_edge.us.i ], [ 0, %.preheader.us.preheader.i ]
  %.01418.us.i = phi ptr [ %24, %._crit_edge.us.i ], [ %4, %.preheader.us.preheader.i ]
  %.01517.us.i = phi ptr [ %23, %._crit_edge.us.i ], [ %0, %.preheader.us.preheader.i ]
  br label %13

13:                                               ; preds = %13, %.preheader.us.i
  %indvars.iv.i = phi i64 [ 0, %.preheader.us.i ], [ %indvars.iv.next.i, %13 ]
  %14 = getelementptr inbounds float, ptr %.01517.us.i, i64 %indvars.iv.i
  %15 = load float, ptr %14, align 4
  %16 = insertelement <4 x float> poison, float %15, i64 0
  %17 = call noundef i32 @llvm.x86.sse.cvtss2si(<4 x float> %16)
  %18 = call i32 @llvm.smax.i32(i32 %17, i32 -128)
  %19 = call i32 @llvm.smin.i32(i32 %18, i32 127)
  %20 = trunc nsw i32 %19 to i8
  %21 = getelementptr inbounds i8, ptr %.01418.us.i, i64 %indvars.iv.i
  store i8 %20, ptr %21, align 1
  %indvars.iv.next.i = add nuw nsw i64 %indvars.iv.i, 1
  %exitcond.not.i = icmp eq i64 %indvars.iv.next.i, %wide.trip.count.i
  br i1 %exitcond.not.i, label %._crit_edge.us.i, label %13, !llvm.loop !32

._crit_edge.us.i:                                 ; preds = %13
  %22 = add nuw nsw i32 %.01319.us.i, 1
  %23 = getelementptr inbounds float, ptr %.01517.us.i, i64 %10
  %24 = getelementptr inbounds i8, ptr %.01418.us.i, i64 %5
  %exitcond23.not.i = icmp eq i32 %22, %.sroa.2.0.extract.trunc.i
  br i1 %exitcond23.not.i, label %_ZN2cv12cpu_baselineL4cvt_IfaNS_12hal_baseline5v_regIfLi4EEEEEvPKT_mPT0_mNS_5Size_IiEE.exit, label %.preheader.us.i, !llvm.loop !33

_ZN2cv12cpu_baselineL4cvt_IfaNS_12hal_baseline5v_regIfLi4EEEEEvPKT_mPT0_mNS_5Size_IiEE.exit: ; preds = %._crit_edge.us.i, %8
  %25 = getelementptr inbounds i8, ptr %9, i64 8
  %26 = load i32, ptr %25, align 8
  %.not.i = icmp eq i32 %26, 0
  br i1 %.not.i, label %_ZN2cv5utils5trace7details6RegionD2Ev.exit, label %27

27:                                               ; preds = %_ZN2cv12cpu_baselineL4cvt_IfaNS_12hal_baseline5v_regIfLi4EEEEEvPKT_mPT0_mNS_5Size_IiEE.exit
  invoke void @_ZN2cv5utils5trace7details6Region7destroyEv(ptr noundef nonnull align 8 dereferenceable(12) %9)
          to label %_ZN2cv5utils5trace7details6RegionD2Ev.exit unwind label %28

28:                                               ; preds = %27
  %29 = landingpad { ptr, i32 }
          catch ptr null
  %30 = extractvalue { ptr, i32 } %29, 0
  call void @__clang_call_terminate(ptr %30) #14
  unreachable

_ZN2cv5utils5trace7details6RegionD2Ev.exit:       ; preds = %_ZN2cv12cpu_baselineL4cvt_IfaNS_12hal_baseline5v_regIfLi4EEEEEvPKT_mPT0_mNS_5Size_IiEE.exit, %27
  ret void
}